(dp0
S'messages'
p1
(lp2
(dp3
S'from'
p4
S'webmaster@localhost'
p5
sS'read'
p6
I01
sS'to'
p7
(lp8
S'test@test.com'
p9
asS'time'
p10
F1355509602.469908
sS'data'
p11
S'Content-Type: text/plain; charset="utf-8"\nMIME-Version: 1.0\nContent-Transfer-Encoding: 7bit\nSubject: Account activation on example.com\nFrom: webmaster@localhost\nTo: test@test.com\nDate: Fri, 14 Dec 2012 18:26:42 -0000\nMessage-ID: <20121214182642.32540.21089@pogobook.local>\n\n\nActivate account at example.com:\n\nhttp://example.com/accounts/registration/activate/d6b9eac079d11ce638231e3164f4d6e1297a9bc3/\n\nLink is valid for 7 days.'
p12
sS'id'
p13
I7
sa(dp14
S'from'
p15
S'from@test.com'
p16
sS'read'
p17
I01
sS'to'
p18
(lp19
S'to@test.com'
p20
asS'time'
p21
F1355507765.285587
sS'data'
p22
S'hello world'
p23
sS'id'
p24
I6
sa(dp25
S'from'
p26
S'from@test.com'
p27
sS'read'
p28
I01
sS'to'
p29
(lp30
S'to@test.com'
p31
asS'time'
p32
F1355507588.595301
sS'data'
p33
S'hello world'
p34
sS'id'
p35
I5
sa(dp36
S'from'
p37
S'from@test.com'
p38
sS'read'
p39
I01
sS'to'
p40
(lp41
S'to@test.com'
p42
asS'time'
p43
F1355503791.029883
sS'data'
p44
S'hello world'
p45
sS'id'
p46
I4
sa(dp47
g37
S'from@test.com'
p48
sS'read'
p49
I01
sg40
(lp50
S'to@test.com'
p51
asg43
F1355503785.83783
sg44
S'hello world'
p52
sg46
I3
sa(dp53
g37
S'from@test.com'
p54
sS'read'
p55
I01
sg40
(lp56
S'to@test.com'
p57
asg43
F1355503764.008957
sg44
S'hello world'
p58
sg46
I2
sa(dp59
g37
S'from@test.com'
p60
sg55
I01
sg40
(lp61
S'to@test.com'
p62
asg43
F1355503749.818639
sg44
S'hello world'
p63
sg46
I1
sa(dp64
g4
S'from@test.com'
p65
sS'read'
p66
I01
sg7
(lp67
S'to@test.com'
p68
asg10
F1355509907.560452
sg11
S'hello world'
p69
sg13
I8
sa(dp70
S'to'
p71
(lp72
S'to@froogle.com'
p73
asS'time'
p74
F1355511022.794441
sS'from'
p75
S'me@drooogle.com'
p76
sS'id'
p77
I9
sS'data'
p78
S'Subject: Open email\n\nHello world.Whats happening'
p79
sa(dp80
S'to'
p81
(lp82
S'user@example.com'
p83
asS'from'
p84
S'user@user-pc'
p85
sS'id'
p86
I10
sS'data'
p87
S'Date: Wed, 13 Nov 2019 20:40:14 -0600\nTo: user@example.com\nFrom: user@user-pc\nSubject:A1 8.8.8.8 ;retardo_en_ping: 19.7 ms\nMessage-Id: <20191113204014.002340@user-pc>\nX-Mailer: swaks v20181104.0 jetmore.org/john/code/swaks/\n\nIP:8.8.8.8 con respuesta de 19.7 ms\n\n'
p88
sS'time'
p89
F1573699214.185303
sa(dp90
g81
(lp91
S'user@example.com'
p92
asg84
S'user@user-pc'
p93
sg86
I11
sg87
S'Date: Wed, 13 Nov 2019 20:40:14 -0600\nTo: user@example.com\nFrom: user@user-pc\nSubject:A1 8.8.4.4 ;retardo_en_ping: 19.7 ms\nMessage-Id: <20191113204014.002341@user-pc>\nX-Mailer: swaks v20181104.0 jetmore.org/john/code/swaks/\n\nIP:8.8.4.4 con respuesta de 19.7 ms\n\n'
p94
sg89
F1573699214.255997
sa(dp95
g81
(lp96
S'user@example.com'
p97
asg84
S'user@user-pc'
p98
sg86
I12
sg87
S'Date: Wed, 13 Nov 2019 20:40:14 -0600\nTo: user@example.com\nFrom: user@user-pc\nSubject:A1 8.8.8.8 ;retardo_en_ping: 74.6 ms\nMessage-Id: <20191113204014.002351@user-pc>\nX-Mailer: swaks v20181104.0 jetmore.org/john/code/swaks/\n\nIP:8.8.8.8 con respuesta de 74.6 ms\n\n'
p99
sg89
F1573699214.419168
sa(dp100
g81
(lp101
S'user@example.com'
p102
asg84
S'user@user-pc'
p103
sg86
I13
sg87
S'Date: Wed, 13 Nov 2019 20:40:14 -0600\nTo: user@example.com\nFrom: user@user-pc\nSubject:A1 8.8.4.4 ;retardo_en_ping: 74.6 ms\nMessage-Id: <20191113204014.002352@user-pc>\nX-Mailer: swaks v20181104.0 jetmore.org/john/code/swaks/\n\nIP:8.8.4.4 con respuesta de 74.6 ms\n\n'
p104
sg89
F1573699214.487157
sa(dp105
g81
(lp106
S'user@example.com'
p107
asg84
S'user@user-pc'
p108
sg86
I14
sg87
S'Date: Wed, 13 Nov 2019 20:40:14 -0600\nTo: user@example.com\nFrom: user@user-pc\nSubject:A1 8.8.8.8 ;retardo_en_ping: 67.3 ms\nMessage-Id: <20191113204014.002362@user-pc>\nX-Mailer: swaks v20181104.0 jetmore.org/john/code/swaks/\n\nIP:8.8.8.8 con respuesta de 67.3 ms\n\n'
p109
sg89
F1573699214.632463
sa(dp110
g81
(lp111
S'user@example.com'
p112
asg84
S'user@user-pc'
p113
sg86
I15
sg87
S'Date: Wed, 13 Nov 2019 20:40:14 -0600\nTo: user@example.com\nFrom: user@user-pc\nSubject:A1 8.8.4.4 ;retardo_en_ping: 67.3 ms\nMessage-Id: <20191113204014.002363@user-pc>\nX-Mailer: swaks v20181104.0 jetmore.org/john/code/swaks/\n\nIP:8.8.4.4 con respuesta de 67.3 ms\n\n'
p114
sg89
F1573699214.70121
sa(dp115
g81
(lp116
S'user@example.com'
p117
asg84
S'user@user-pc'
p118
sg86
I16
sg87
S'Date: Wed, 13 Nov 2019 20:40:14 -0600\nTo: user@example.com\nFrom: user@user-pc\nSubject:A1 8.8.8.8 ;retardo_en_ping: 19.4 ms\nMessage-Id: <20191113204014.002373@user-pc>\nX-Mailer: swaks v20181104.0 jetmore.org/john/code/swaks/\n\nIP:8.8.8.8 con respuesta de 19.4 ms\n\n'
p119
sg89
F1573699214.798448
sa(dp120
g81
(lp121
S'user@example.com'
p122
asg84
S'user@user-pc'
p123
sg86
I17
sg87
S'Date: Wed, 13 Nov 2019 20:40:14 -0600\nTo: user@example.com\nFrom: user@user-pc\nSubject:A1 8.8.4.4 ;retardo_en_ping: 19.4 ms\nMessage-Id: <20191113204014.002374@user-pc>\nX-Mailer: swaks v20181104.0 jetmore.org/john/code/swaks/\n\nIP:8.8.4.4 con respuesta de 19.4 ms\n\n'
p124
sg89
F1573699214.866537
sa(dp125
g81
(lp126
S'user@example.com'
p127
asg84
S'user@user-pc'
p128
sg86
I18
sg87
S'Date: Wed, 13 Nov 2019 20:40:14 -0600\nTo: user@example.com\nFrom: user@user-pc\nSubject:A1 8.8.8.8 ;retardo_en_ping: 20.2 ms\nMessage-Id: <20191113204014.002384@user-pc>\nX-Mailer: swaks v20181104.0 jetmore.org/john/code/swaks/\n\nIP:8.8.8.8 con respuesta de 20.2 ms\n\n'
p129
sg89
F1573699214.980265
sa(dp130
g81
(lp131
S'user@example.com'
p132
asg84
S'user@user-pc'
p133
sg86
I19
sg87
S'Date: Wed, 13 Nov 2019 20:40:15 -0600\nTo: user@example.com\nFrom: user@user-pc\nSubject:A1 8.8.4.4 ;retardo_en_ping: 20.2 ms\nMessage-Id: <20191113204015.002385@user-pc>\nX-Mailer: swaks v20181104.0 jetmore.org/john/code/swaks/\n\nIP:8.8.4.4 con respuesta de 20.2 ms\n\n'
p134
sg89
F1573699215.047678
sa(dp135
g81
(lp136
S'user@example.com'
p137
asg84
S'user@user-pc'
p138
sg86
I20
sg87
S'Date: Wed, 13 Nov 2019 20:40:15 -0600\nTo: user@example.com\nFrom: user@user-pc\nSubject:A1 8.8.8.8 ;retardo_en_ping: 22.7 ms\nMessage-Id: <20191113204015.002395@user-pc>\nX-Mailer: swaks v20181104.0 jetmore.org/john/code/swaks/\n\nIP:8.8.8.8 con respuesta de 22.7 ms\n\n'
p139
sg89
F1573699215.156392
sa(dp140
g81
(lp141
S'user@example.com'
p142
asg84
S'user@user-pc'
p143
sg86
I21
sg87
S'Date: Wed, 13 Nov 2019 20:40:15 -0600\nTo: user@example.com\nFrom: user@user-pc\nSubject:A1 8.8.4.4 ;retardo_en_ping: 22.7 ms\nMessage-Id: <20191113204015.002396@user-pc>\nX-Mailer: swaks v20181104.0 jetmore.org/john/code/swaks/\n\nIP:8.8.4.4 con respuesta de 22.7 ms\n\n'
p144
sg89
F1573699215.227114
sa(dp145
g81
(lp146
S'user@example.com'
p147
asg84
S'user@user-pc'
p148
sg86
I22
sg87
S'Date: Wed, 13 Nov 2019 20:40:15 -0600\nTo: user@example.com\nFrom: user@user-pc\nSubject:A1 8.8.8.8 ;retardo_en_ping: 19.6 ms\nMessage-Id: <20191113204015.002406@user-pc>\nX-Mailer: swaks v20181104.0 jetmore.org/john/code/swaks/\n\nIP:8.8.8.8 con respuesta de 19.6 ms\n\n'
p149
sg89
F1573699215.332679
sa(dp150
g81
(lp151
S'user@example.com'
p152
asg84
S'user@user-pc'
p153
sg86
I23
sg87
S'Date: Wed, 13 Nov 2019 20:40:15 -0600\nTo: user@example.com\nFrom: user@user-pc\nSubject:A1 8.8.4.4 ;retardo_en_ping: 19.6 ms\nMessage-Id: <20191113204015.002407@user-pc>\nX-Mailer: swaks v20181104.0 jetmore.org/john/code/swaks/\n\nIP:8.8.4.4 con respuesta de 19.6 ms\n\n'
p154
sg89
F1573699215.412315
sa(dp155
g81
(lp156
S'user@example.com'
p157
asg84
S'user@user-pc'
p158
sg86
I24
sg87
S'Date: Wed, 13 Nov 2019 20:40:15 -0600\nTo: user@example.com\nFrom: user@user-pc\nSubject:A1 8.8.8.8 ;retardo_en_ping: 20.2 ms\nMessage-Id: <20191113204015.002417@user-pc>\nX-Mailer: swaks v20181104.0 jetmore.org/john/code/swaks/\n\nIP:8.8.8.8 con respuesta de 20.2 ms\n\n'
p159
sg89
F1573699215.525223
sa(dp160
g81
(lp161
S'user@example.com'
p162
asg84
S'user@user-pc'
p163
sg86
I25
sg87
S'Date: Wed, 13 Nov 2019 20:40:15 -0600\nTo: user@example.com\nFrom: user@user-pc\nSubject:A1 8.8.4.4 ;retardo_en_ping: 20.2 ms\nMessage-Id: <20191113204015.002418@user-pc>\nX-Mailer: swaks v20181104.0 jetmore.org/john/code/swaks/\n\nIP:8.8.4.4 con respuesta de 20.2 ms\n\n'
p164
sg89
F1573699215.603145
sa(dp165
g81
(lp166
S'user@example.com'
p167
asg84
S'user@user-pc'
p168
sg86
I26
sg87
S'Date: Wed, 13 Nov 2019 20:40:15 -0600\nTo: user@example.com\nFrom: user@user-pc\nSubject:A1 8.8.8.8 ;retardo_en_ping: 19.1 ms\nMessage-Id: <20191113204015.002428@user-pc>\nX-Mailer: swaks v20181104.0 jetmore.org/john/code/swaks/\n\nIP:8.8.8.8 con respuesta de 19.1 ms\n\n'
p169
sg89
F1573699215.701562
sa(dp170
g81
(lp171
S'user@example.com'
p172
asg84
S'user@user-pc'
p173
sg86
I27
sg87
S'Date: Wed, 13 Nov 2019 20:40:15 -0600\nTo: user@example.com\nFrom: user@user-pc\nSubject:A1 8.8.4.4 ;retardo_en_ping: 19.1 ms\nMessage-Id: <20191113204015.002429@user-pc>\nX-Mailer: swaks v20181104.0 jetmore.org/john/code/swaks/\n\nIP:8.8.4.4 con respuesta de 19.1 ms\n\n'
p174
sg89
F1573699215.767025
sa(dp175
g81
(lp176
S'user@example.com'
p177
asg84
S'user@user-pc'
p178
sg86
I28
sg87
S'Date: Wed, 13 Nov 2019 20:40:15 -0600\nTo: user@example.com\nFrom: user@user-pc\nSubject:A1 8.8.8.8 ;retardo_en_ping: 27.5 ms\nMessage-Id: <20191113204015.002439@user-pc>\nX-Mailer: swaks v20181104.0 jetmore.org/john/code/swaks/\n\nIP:8.8.8.8 con respuesta de 27.5 ms\n\n'
p179
sg89
F1573699215.876196
sa(dp180
g81
(lp181
S'user@example.com'
p182
asg84
S'user@user-pc'
p183
sg86
I29
sg87
S'Date: Wed, 13 Nov 2019 20:40:15 -0600\nTo: user@example.com\nFrom: user@user-pc\nSubject:A1 8.8.4.4 ;retardo_en_ping: 27.5 ms\nMessage-Id: <20191113204015.002440@user-pc>\nX-Mailer: swaks v20181104.0 jetmore.org/john/code/swaks/\n\nIP:8.8.4.4 con respuesta de 27.5 ms\n\n'
p184
sg89
F1573699215.948732
sa(dp185
g81
(lp186
S'user@example.com'
p187
asg84
S'user@user-pc'
p188
sg86
I30
sg87
S'Date: Wed, 13 Nov 2019 20:40:16 -0600\nTo: user@example.com\nFrom: user@user-pc\nSubject:A1 8.8.8.8 ;retardo_en_ping: 33.1 ms\nMessage-Id: <20191113204016.002450@user-pc>\nX-Mailer: swaks v20181104.0 jetmore.org/john/code/swaks/\n\nIP:8.8.8.8 con respuesta de 33.1 ms\n\n'
p189
sg89
F1573699216.062174
sa(dp190
g81
(lp191
S'user@example.com'
p192
asg84
S'user@user-pc'
p193
sg86
I31
sg87
S'Date: Wed, 13 Nov 2019 20:40:16 -0600\nTo: user@example.com\nFrom: user@user-pc\nSubject:A1 8.8.4.4 ;retardo_en_ping: 33.1 ms\nMessage-Id: <20191113204016.002451@user-pc>\nX-Mailer: swaks v20181104.0 jetmore.org/john/code/swaks/\n\nIP:8.8.4.4 con respuesta de 33.1 ms\n\n'
p194
sg89
F1573699216.131062
sa(dp195
g81
(lp196
S'user@example.com'
p197
asg84
S'user@user-pc'
p198
sg86
I32
sg87
S'Date: Wed, 13 Nov 2019 20:40:16 -0600\nTo: user@example.com\nFrom: user@user-pc\nSubject:A1 8.8.8.8 ;retardo_en_ping: 19.3 ms\nMessage-Id: <20191113204016.002461@user-pc>\nX-Mailer: swaks v20181104.0 jetmore.org/john/code/swaks/\n\nIP:8.8.8.8 con respuesta de 19.3 ms\n\n'
p199
sg89
F1573699216.230725
sa(dp200
g81
(lp201
S'user@example.com'
p202
asg84
S'user@user-pc'
p203
sg86
I33
sg87
S'Date: Wed, 13 Nov 2019 20:40:16 -0600\nTo: user@example.com\nFrom: user@user-pc\nSubject:A1 8.8.4.4 ;retardo_en_ping: 19.3 ms\nMessage-Id: <20191113204016.002462@user-pc>\nX-Mailer: swaks v20181104.0 jetmore.org/john/code/swaks/\n\nIP:8.8.4.4 con respuesta de 19.3 ms\n\n'
p204
sg89
F1573699216.299552
sa(dp205
g81
(lp206
S'user@example.com'
p207
asg84
S'user@user-pc'
p208
sg86
I34
sg87
S'Date: Wed, 13 Nov 2019 20:40:16 -0600\nTo: user@example.com\nFrom: user@user-pc\nSubject:A1 8.8.8.8 ;retardo_en_ping: 19.9 ms\nMessage-Id: <20191113204016.002472@user-pc>\nX-Mailer: swaks v20181104.0 jetmore.org/john/code/swaks/\n\nIP:8.8.8.8 con respuesta de 19.9 ms\n\n'
p209
sg89
F1573699216.412293
sa(dp210
g81
(lp211
S'user@example.com'
p212
asg84
S'user@user-pc'
p213
sg86
I35
sg87
S'Date: Wed, 13 Nov 2019 20:40:16 -0600\nTo: user@example.com\nFrom: user@user-pc\nSubject:A1 8.8.4.4 ;retardo_en_ping: 19.9 ms\nMessage-Id: <20191113204016.002473@user-pc>\nX-Mailer: swaks v20181104.0 jetmore.org/john/code/swaks/\n\nIP:8.8.4.4 con respuesta de 19.9 ms\n\n'
p214
sg89
F1573699216.479782
sa(dp215
g81
(lp216
S'user@example.com'
p217
asg84
S'user@user-pc'
p218
sg86
I36
sg87
S'Date: Wed, 13 Nov 2019 20:40:16 -0600\nTo: user@example.com\nFrom: user@user-pc\nSubject:A1 8.8.8.8 ;retardo_en_ping: 19.5 ms\nMessage-Id: <20191113204016.002483@user-pc>\nX-Mailer: swaks v20181104.0 jetmore.org/john/code/swaks/\n\nIP:8.8.8.8 con respuesta de 19.5 ms\n\n'
p219
sg89
F1573699216.587215
sa(dp220
g81
(lp221
S'user@example.com'
p222
asg84
S'user@user-pc'
p223
sg86
I37
sg87
S'Date: Wed, 13 Nov 2019 20:40:16 -0600\nTo: user@example.com\nFrom: user@user-pc\nSubject:A1 8.8.4.4 ;retardo_en_ping: 19.5 ms\nMessage-Id: <20191113204016.002484@user-pc>\nX-Mailer: swaks v20181104.0 jetmore.org/john/code/swaks/\n\nIP:8.8.4.4 con respuesta de 19.5 ms\n\n'
p224
sg89
F1573699216.655098
sa(dp225
g81
(lp226
S'user@example.com'
p227
asg84
S'user@user-pc'
p228
sg86
I38
sg87
S'Date: Wed, 13 Nov 2019 20:40:16 -0600\nTo: user@example.com\nFrom: user@user-pc\nSubject:A1 8.8.8.8 ;retardo_en_ping: 21.7 ms\nMessage-Id: <20191113204016.002494@user-pc>\nX-Mailer: swaks v20181104.0 jetmore.org/john/code/swaks/\n\nIP:8.8.8.8 con respuesta de 21.7 ms\n\n'
p229
sg89
F1573699216.75553
sa(dp230
g81
(lp231
S'user@example.com'
p232
asg84
S'user@user-pc'
p233
sg86
I39
sg87
S'Date: Wed, 13 Nov 2019 20:40:16 -0600\nTo: user@example.com\nFrom: user@user-pc\nSubject:A1 8.8.4.4 ;retardo_en_ping: 21.7 ms\nMessage-Id: <20191113204016.002495@user-pc>\nX-Mailer: swaks v20181104.0 jetmore.org/john/code/swaks/\n\nIP:8.8.4.4 con respuesta de 21.7 ms\n\n'
p234
sg89
F1573699216.822328
sa(dp235
g81
(lp236
S'user@example.com'
p237
asg84
S'user@user-pc'
p238
sg86
I40
sg87
S'Date: Wed, 13 Nov 2019 20:40:16 -0600\nTo: user@example.com\nFrom: user@user-pc\nSubject:A1 8.8.8.8 ;retardo_en_ping: 19.6 ms\nMessage-Id: <20191113204016.002505@user-pc>\nX-Mailer: swaks v20181104.0 jetmore.org/john/code/swaks/\n\nIP:8.8.8.8 con respuesta de 19.6 ms\n\n'
p239
sg89
F1573699216.922171
sa(dp240
g81
(lp241
S'user@example.com'
p242
asg84
S'user@user-pc'
p243
sg86
I41
sg87
S'Date: Wed, 13 Nov 2019 20:40:16 -0600\nTo: user@example.com\nFrom: user@user-pc\nSubject:A1 8.8.4.4 ;retardo_en_ping: 19.6 ms\nMessage-Id: <20191113204016.002506@user-pc>\nX-Mailer: swaks v20181104.0 jetmore.org/john/code/swaks/\n\nIP:8.8.4.4 con respuesta de 19.6 ms\n\n'
p244
sg89
F1573699216.99058
sa(dp245
g81
(lp246
S'user@example.com'
p247
asg84
S'user@user-pc'
p248
sg86
I42
sg87
S'Date: Wed, 13 Nov 2019 20:40:17 -0600\nTo: user@example.com\nFrom: user@user-pc\nSubject:A1 8.8.8.8 ;retardo_en_ping: 20.1 ms\nMessage-Id: <20191113204017.002516@user-pc>\nX-Mailer: swaks v20181104.0 jetmore.org/john/code/swaks/\n\nIP:8.8.8.8 con respuesta de 20.1 ms\n\n'
p249
sg89
F1573699217.091185
sa(dp250
g81
(lp251
S'user@example.com'
p252
asg84
S'user@user-pc'
p253
sg86
I43
sg87
S'Date: Wed, 13 Nov 2019 20:40:17 -0600\nTo: user@example.com\nFrom: user@user-pc\nSubject:A1 8.8.4.4 ;retardo_en_ping: 20.1 ms\nMessage-Id: <20191113204017.002517@user-pc>\nX-Mailer: swaks v20181104.0 jetmore.org/john/code/swaks/\n\nIP:8.8.4.4 con respuesta de 20.1 ms\n\n'
p254
sg89
F1573699217.160423
sa(dp255
g81
(lp256
S'user@example.com'
p257
asg84
S'user@user-pc'
p258
sg86
I44
sg87
S'Date: Wed, 13 Nov 2019 20:40:17 -0600\nTo: user@example.com\nFrom: user@user-pc\nSubject:A1 8.8.8.8 ;retardo_en_ping: 140 ms\nMessage-Id: <20191113204017.002527@user-pc>\nX-Mailer: swaks v20181104.0 jetmore.org/john/code/swaks/\n\nIP:8.8.8.8 con respuesta de 140 ms\n\n'
p259
sg89
F1573699217.403081
sa(dp260
g81
(lp261
S'user@example.com'
p262
asg84
S'user@user-pc'
p263
sg86
I45
sg87
S'Date: Wed, 13 Nov 2019 20:40:17 -0600\nTo: user@example.com\nFrom: user@user-pc\nSubject:A1 8.8.4.4 ;retardo_en_ping: 140 ms\nMessage-Id: <20191113204017.002528@user-pc>\nX-Mailer: swaks v20181104.0 jetmore.org/john/code/swaks/\n\nIP:8.8.4.4 con respuesta de 140 ms\n\n'
p264
sg89
F1573699217.474311
sa(dp265
g81
(lp266
S'user@example.com'
p267
asg84
S'user@user-pc'
p268
sg86
I46
sg87
S'Date: Wed, 13 Nov 2019 20:40:17 -0600\nTo: user@example.com\nFrom: user@user-pc\nSubject:A1 8.8.8.8 ;retardo_en_ping: 52.5 ms\nMessage-Id: <20191113204017.002538@user-pc>\nX-Mailer: swaks v20181104.0 jetmore.org/john/code/swaks/\n\nIP:8.8.8.8 con respuesta de 52.5 ms\n\n'
p269
sg89
F1573699217.609996
sa(dp270
g81
(lp271
S'user@example.com'
p272
asg84
S'user@user-pc'
p273
sg86
I47
sg87
S'Date: Wed, 13 Nov 2019 20:40:17 -0600\nTo: user@example.com\nFrom: user@user-pc\nSubject:A1 8.8.4.4 ;retardo_en_ping: 52.5 ms\nMessage-Id: <20191113204017.002539@user-pc>\nX-Mailer: swaks v20181104.0 jetmore.org/john/code/swaks/\n\nIP:8.8.4.4 con respuesta de 52.5 ms\n\n'
p274
sg89
F1573699217.680967
sa(dp275
g81
(lp276
S'user@example.com'
p277
asg84
S'user@user-pc'
p278
sg86
I48
sg87
S'Date: Wed, 13 Nov 2019 20:40:17 -0600\nTo: user@example.com\nFrom: user@user-pc\nSubject:A1 8.8.8.8 ;retardo_en_ping: 31.1 ms\nMessage-Id: <20191113204017.002549@user-pc>\nX-Mailer: swaks v20181104.0 jetmore.org/john/code/swaks/\n\nIP:8.8.8.8 con respuesta de 31.1 ms\n\n'
p279
sg89
F1573699217.806342
sa(dp280
g81
(lp281
S'user@example.com'
p282
asg84
S'user@user-pc'
p283
sg86
I49
sg87
S'Date: Wed, 13 Nov 2019 20:40:17 -0600\nTo: user@example.com\nFrom: user@user-pc\nSubject:A1 8.8.4.4 ;retardo_en_ping: 31.1 ms\nMessage-Id: <20191113204017.002550@user-pc>\nX-Mailer: swaks v20181104.0 jetmore.org/john/code/swaks/\n\nIP:8.8.4.4 con respuesta de 31.1 ms\n\n'
p284
sg89
F1573699217.875981
sa(dp285
g81
(lp286
S'user@example.com'
p287
asg84
S'user@user-pc'
p288
sg86
I50
sg87
S'Date: Wed, 13 Nov 2019 20:40:17 -0600\nTo: user@example.com\nFrom: user@user-pc\nSubject:A1 8.8.8.8 ;retardo_en_ping: 38.7 ms\nMessage-Id: <20191113204017.002560@user-pc>\nX-Mailer: swaks v20181104.0 jetmore.org/john/code/swaks/\n\nIP:8.8.8.8 con respuesta de 38.7 ms\n\n'
p289
sg89
F1573699217.998813
sa(dp290
g81
(lp291
S'user@example.com'
p292
asg84
S'user@user-pc'
p293
sg86
I51
sg87
S'Date: Wed, 13 Nov 2019 20:40:18 -0600\nTo: user@example.com\nFrom: user@user-pc\nSubject:A1 8.8.4.4 ;retardo_en_ping: 38.7 ms\nMessage-Id: <20191113204018.002561@user-pc>\nX-Mailer: swaks v20181104.0 jetmore.org/john/code/swaks/\n\nIP:8.8.4.4 con respuesta de 38.7 ms\n\n'
p294
sg89
F1573699218.069871
sa(dp295
g81
(lp296
S'user@example.com'
p297
asg84
S'user@user-pc'
p298
sg86
I52
sg87
S'Date: Wed, 13 Nov 2019 20:40:18 -0600\nTo: user@example.com\nFrom: user@user-pc\nSubject:A1 8.8.8.8 ;retardo_en_ping: 94.3 ms\nMessage-Id: <20191113204018.002571@user-pc>\nX-Mailer: swaks v20181104.0 jetmore.org/john/code/swaks/\n\nIP:8.8.8.8 con respuesta de 94.3 ms\n\n'
p299
sg89
F1573699218.257029
sa(dp300
g81
(lp301
S'user@example.com'
p302
asg84
S'user@user-pc'
p303
sg86
I53
sg87
S'Date: Wed, 13 Nov 2019 20:40:18 -0600\nTo: user@example.com\nFrom: user@user-pc\nSubject:A1 8.8.4.4 ;retardo_en_ping: 94.3 ms\nMessage-Id: <20191113204018.002572@user-pc>\nX-Mailer: swaks v20181104.0 jetmore.org/john/code/swaks/\n\nIP:8.8.4.4 con respuesta de 94.3 ms\n\n'
p304
sg89
F1573699218.327296
sa(dp305
g81
(lp306
S'user@example.com'
p307
asg84
S'user@user-pc'
p308
sg86
I54
sg87
S'Date: Wed, 13 Nov 2019 20:40:18 -0600\nTo: user@example.com\nFrom: user@user-pc\nSubject:A1 8.8.8.8 ;retardo_en_ping: 109 ms\nMessage-Id: <20191113204018.002582@user-pc>\nX-Mailer: swaks v20181104.0 jetmore.org/john/code/swaks/\n\nIP:8.8.8.8 con respuesta de 109 ms\n\n'
p309
sg89
F1573699218.5301
sa(dp310
g81
(lp311
S'user@example.com'
p312
asg84
S'user@user-pc'
p313
sg86
I55
sg87
S'Date: Wed, 13 Nov 2019 20:40:18 -0600\nTo: user@example.com\nFrom: user@user-pc\nSubject:A1 8.8.4.4 ;retardo_en_ping: 109 ms\nMessage-Id: <20191113204018.002583@user-pc>\nX-Mailer: swaks v20181104.0 jetmore.org/john/code/swaks/\n\nIP:8.8.4.4 con respuesta de 109 ms\n\n'
p314
sg89
F1573699218.610714
sa(dp315
g81
(lp316
S'user@example.com'
p317
asg84
S'user@user-pc'
p318
sg86
I56
sg87
S'Date: Wed, 13 Nov 2019 20:40:18 -0600\nTo: user@example.com\nFrom: user@user-pc\nSubject:A1 8.8.8.8 ;retardo_en_ping: 134 ms\nMessage-Id: <20191113204018.002593@user-pc>\nX-Mailer: swaks v20181104.0 jetmore.org/john/code/swaks/\n\nIP:8.8.8.8 con respuesta de 134 ms\n\n'
p319
sg89
F1573699218.839841
sa(dp320
g81
(lp321
S'user@example.com'
p322
asg84
S'user@user-pc'
p323
sg86
I57
sg87
S'Date: Wed, 13 Nov 2019 20:40:18 -0600\nTo: user@example.com\nFrom: user@user-pc\nSubject:A1 8.8.4.4 ;retardo_en_ping: 134 ms\nMessage-Id: <20191113204018.002594@user-pc>\nX-Mailer: swaks v20181104.0 jetmore.org/john/code/swaks/\n\nIP:8.8.4.4 con respuesta de 134 ms\n\n'
p324
sg89
F1573699218.918886
sa(dp325
g81
(lp326
S'user@example.com'
p327
asg84
S'user@user-pc'
p328
sg86
I58
sg87
S'Date: Wed, 13 Nov 2019 20:40:19 -0600\nTo: user@example.com\nFrom: user@user-pc\nSubject:A1 8.8.8.8 ;retardo_en_ping: 66.0 ms\nMessage-Id: <20191113204019.002604@user-pc>\nX-Mailer: swaks v20181104.0 jetmore.org/john/code/swaks/\n\nIP:8.8.8.8 con respuesta de 66.0 ms\n\n'
p329
sg89
F1573699219.09156
sa(dp330
g81
(lp331
S'user@example.com'
p332
asg84
S'user@user-pc'
p333
sg86
I59
sg87
S'Date: Wed, 13 Nov 2019 20:40:19 -0600\nTo: user@example.com\nFrom: user@user-pc\nSubject:A1 8.8.4.4 ;retardo_en_ping: 66.0 ms\nMessage-Id: <20191113204019.002605@user-pc>\nX-Mailer: swaks v20181104.0 jetmore.org/john/code/swaks/\n\nIP:8.8.4.4 con respuesta de 66.0 ms\n\n'
p334
sg89
F1573699219.166212
sa(dp335
g81
(lp336
S'user@example.com'
p337
asg84
S'user@user-pc'
p338
sg86
I60
sg87
S'Date: Wed, 13 Nov 2019 20:40:19 -0600\nTo: user@example.com\nFrom: user@user-pc\nSubject:A1 8.8.8.8 ;retardo_en_ping: 53.0 ms\nMessage-Id: <20191113204019.002615@user-pc>\nX-Mailer: swaks v20181104.0 jetmore.org/john/code/swaks/\n\nIP:8.8.8.8 con respuesta de 53.0 ms\n\n'
p339
sg89
F1573699219.309231
sa(dp340
g81
(lp341
S'user@example.com'
p342
asg84
S'user@user-pc'
p343
sg86
I61
sg87
S'Date: Wed, 13 Nov 2019 20:40:19 -0600\nTo: user@example.com\nFrom: user@user-pc\nSubject:A1 8.8.4.4 ;retardo_en_ping: 53.0 ms\nMessage-Id: <20191113204019.002616@user-pc>\nX-Mailer: swaks v20181104.0 jetmore.org/john/code/swaks/\n\nIP:8.8.4.4 con respuesta de 53.0 ms\n\n'
p344
sg89
F1573699219.38052
sa(dp345
g84
S'user@user-pc'
p346
sS'read'
p347
I01
sg81
(lp348
S'user@example.com'
p349
asg89
F1573699219.501698
sg87
S'Date: Wed, 13 Nov 2019 20:40:19 -0600\nTo: user@example.com\nFrom: user@user-pc\nSubject:A1 8.8.8.8 ;retardo_en_ping: 20.1 ms\nMessage-Id: <20191113204019.002626@user-pc>\nX-Mailer: swaks v20181104.0 jetmore.org/john/code/swaks/\n\nIP:8.8.8.8 con respuesta de 20.1 ms\n\n'
p350
sg86
I62
sa(dp351
g84
S'user@user-pc'
p352
sg347
I01
sg81
(lp353
S'user@example.com'
p354
asg89
F1573699344.746561
sg87
S'Date: Wed, 13 Nov 2019 20:42:24 -0600\nTo: user@example.com\nFrom: user@user-pc\nSubject:A1 8.8.8.8 ;retardo_en_ping: 23.9 ms\nMessage-Id: <20191113204224.002682@user-pc>\nX-Mailer: swaks v20181104.0 jetmore.org/john/code/swaks/\n\nIP:8.8.8.8 con respuesta de 23.9 ms\n\n'
p355
sg86
I63
sa(dp356
g84
S'user@user-pc'
p357
sg347
I01
sg81
(lp358
S'user@example.com'
p359
asg89
F1573699344.815137
sg87
S'Date: Wed, 13 Nov 2019 20:42:24 -0600\nTo: user@example.com\nFrom: user@user-pc\nSubject:A1 8.8.4.4 ;retardo_en_ping: 23.9 ms\nMessage-Id: <20191113204224.002683@user-pc>\nX-Mailer: swaks v20181104.0 jetmore.org/john/code/swaks/\n\nIP:8.8.4.4 con respuesta de 23.9 ms\n\n'
p360
sg86
I64
sa(dp361
g81
(lp362
S'user@example.com'
p363
asg84
S'user@user-pc'
p364
sg86
I65
sg87
S'Date: Wed, 13 Nov 2019 20:42:29 -0600\nTo: user@example.com\nFrom: user@user-pc\nSubject:A1 8.8.8.8 ;retardo_en_ping: 19.7 ms\nMessage-Id: <20191113204229.002693@user-pc>\nX-Mailer: swaks v20181104.0 jetmore.org/john/code/swaks/\n\nIP:8.8.8.8 con respuesta de 19.7 ms\n\n'
p365
sg89
F1573699349.996531
sa(dp366
g81
(lp367
S'user@example.com'
p368
asg84
S'user@user-pc'
p369
sg86
I66
sg87
S'Date: Wed, 13 Nov 2019 20:42:30 -0600\nTo: user@example.com\nFrom: user@user-pc\nSubject:A1 8.8.4.4 ;retardo_en_ping: 19.7 ms\nMessage-Id: <20191113204230.002694@user-pc>\nX-Mailer: swaks v20181104.0 jetmore.org/john/code/swaks/\n\nIP:8.8.4.4 con respuesta de 19.7 ms\n\n'
p370
sg89
F1573699350.158705
sa(dp371
g81
(lp372
S'user@example.com'
p373
asg84
S'user@user-pc'
p374
sg86
I67
sg87
S'Date: Wed, 13 Nov 2019 20:42:35 -0600\nTo: user@example.com\nFrom: user@user-pc\nSubject:A1 8.8.8.8 ;retardo_en_ping: 21.2 ms\nMessage-Id: <20191113204235.002704@user-pc>\nX-Mailer: swaks v20181104.0 jetmore.org/john/code/swaks/\n\nIP:8.8.8.8 con respuesta de 21.2 ms\n\n'
p375
sg89
F1573699355.367529
sa(dp376
g81
(lp377
S'user@example.com'
p378
asg84
S'user@user-pc'
p379
sg86
I68
sg87
S'Date: Wed, 13 Nov 2019 20:42:35 -0600\nTo: user@example.com\nFrom: user@user-pc\nSubject:A1 8.8.4.4 ;retardo_en_ping: 21.2 ms\nMessage-Id: <20191113204235.002705@user-pc>\nX-Mailer: swaks v20181104.0 jetmore.org/john/code/swaks/\n\nIP:8.8.4.4 con respuesta de 21.2 ms\n\n'
p380
sg89
F1573699355.449589
sa(dp381
g81
(lp382
S'user@example.com'
p383
asg84
S'user@user-pc'
p384
sg86
I69
sg87
S'Date: Wed, 13 Nov 2019 20:42:40 -0600\nTo: user@example.com\nFrom: user@user-pc\nSubject:A1 8.8.8.8 ;retardo_en_ping: 20.8 ms\nMessage-Id: <20191113204240.002715@user-pc>\nX-Mailer: swaks v20181104.0 jetmore.org/john/code/swaks/\n\nIP:8.8.8.8 con respuesta de 20.8 ms\n\n'
p385
sg89
F1573699360.650225
sa(dp386
g81
(lp387
S'user@example.com'
p388
asg84
S'user@user-pc'
p389
sg86
I70
sg87
S'Date: Wed, 13 Nov 2019 20:42:40 -0600\nTo: user@example.com\nFrom: user@user-pc\nSubject:A1 8.8.4.4 ;retardo_en_ping: 20.8 ms\nMessage-Id: <20191113204240.002716@user-pc>\nX-Mailer: swaks v20181104.0 jetmore.org/john/code/swaks/\n\nIP:8.8.4.4 con respuesta de 20.8 ms\n\n'
p390
sg89
F1573699360.721005
sa(dp391
g81
(lp392
S'user@example.com'
p393
asg84
S'user@user-pc'
p394
sg86
I71
sg87
S'Date: Wed, 13 Nov 2019 20:42:45 -0600\nTo: user@example.com\nFrom: user@user-pc\nSubject:A1 8.8.8.8 ;retardo_en_ping: 37.5 ms\nMessage-Id: <20191113204245.002726@user-pc>\nX-Mailer: swaks v20181104.0 jetmore.org/john/code/swaks/\n\nIP:8.8.8.8 con respuesta de 37.5 ms\n\n'
p395
sg89
F1573699365.955131
sa(dp396
g81
(lp397
S'user@example.com'
p398
asg84
S'user@user-pc'
p399
sg86
I72
sg87
S'Date: Wed, 13 Nov 2019 20:42:46 -0600\nTo: user@example.com\nFrom: user@user-pc\nSubject:A1 8.8.4.4 ;retardo_en_ping: 37.5 ms\nMessage-Id: <20191113204246.002727@user-pc>\nX-Mailer: swaks v20181104.0 jetmore.org/john/code/swaks/\n\nIP:8.8.4.4 con respuesta de 37.5 ms\n\n'
p400
sg89
F1573699366.028268
sa(dp401
g81
(lp402
S'user@example.com'
p403
asg84
S'user@user-pc'
p404
sg86
I73
sg87
S'Date: Wed, 13 Nov 2019 20:42:51 -0600\nTo: user@example.com\nFrom: user@user-pc\nSubject:A1 8.8.8.8 ;retardo_en_ping: 22.4 ms\nMessage-Id: <20191113204251.002737@user-pc>\nX-Mailer: swaks v20181104.0 jetmore.org/john/code/swaks/\n\nIP:8.8.8.8 con respuesta de 22.4 ms\n\n'
p405
sg89
F1573699371.231335
sa(dp406
g81
(lp407
S'user@example.com'
p408
asg84
S'user@user-pc'
p409
sg86
I74
sg87
S'Date: Wed, 13 Nov 2019 20:42:51 -0600\nTo: user@example.com\nFrom: user@user-pc\nSubject:A1 8.8.4.4 ;retardo_en_ping: 22.4 ms\nMessage-Id: <20191113204251.002738@user-pc>\nX-Mailer: swaks v20181104.0 jetmore.org/john/code/swaks/\n\nIP:8.8.4.4 con respuesta de 22.4 ms\n\n'
p410
sg89
F1573699371.301707
sa(dp411
g81
(lp412
S'user@example.com'
p413
asg84
S'user@user-pc'
p414
sg86
I75
sg87
S'Date: Wed, 13 Nov 2019 20:42:56 -0600\nTo: user@example.com\nFrom: user@user-pc\nSubject:A1 8.8.8.8 ;retardo_en_ping: 21.3 ms\nMessage-Id: <20191113204256.002748@user-pc>\nX-Mailer: swaks v20181104.0 jetmore.org/john/code/swaks/\n\nIP:8.8.8.8 con respuesta de 21.3 ms\n\n'
p415
sg89
F1573699376.490531
sa(dp416
g81
(lp417
S'user@example.com'
p418
asg84
S'user@user-pc'
p419
sg86
I76
sg87
S'Date: Wed, 13 Nov 2019 20:42:56 -0600\nTo: user@example.com\nFrom: user@user-pc\nSubject:A1 8.8.4.4 ;retardo_en_ping: 21.3 ms\nMessage-Id: <20191113204256.002749@user-pc>\nX-Mailer: swaks v20181104.0 jetmore.org/john/code/swaks/\n\nIP:8.8.4.4 con respuesta de 21.3 ms\n\n'
p420
sg89
F1573699376.563681
sa(dp421
g81
(lp422
S'user@example.com'
p423
asg84
S'user@user-pc'
p424
sg86
I77
sg87
S'Date: Wed, 13 Nov 2019 20:43:01 -0600\nTo: user@example.com\nFrom: user@user-pc\nSubject:A1 8.8.8.8 ;retardo_en_ping: 22.8 ms\nMessage-Id: <20191113204301.002759@user-pc>\nX-Mailer: swaks v20181104.0 jetmore.org/john/code/swaks/\n\nIP:8.8.8.8 con respuesta de 22.8 ms\n\n'
p425
sg89
F1573699381.748301
sa(dp426
g81
(lp427
S'user@example.com'
p428
asg84
S'user@user-pc'
p429
sg86
I78
sg87
S'Date: Wed, 13 Nov 2019 20:43:01 -0600\nTo: user@example.com\nFrom: user@user-pc\nSubject:A1 8.8.4.4 ;retardo_en_ping: 22.8 ms\nMessage-Id: <20191113204301.002760@user-pc>\nX-Mailer: swaks v20181104.0 jetmore.org/john/code/swaks/\n\nIP:8.8.4.4 con respuesta de 22.8 ms\n\n'
p430
sg89
F1573699381.817176
sa(dp431
g81
(lp432
S'user@example.com'
p433
asg84
S'user@user-pc'
p434
sg86
I79
sg87
S'Date: Wed, 13 Nov 2019 20:43:06 -0600\nTo: user@example.com\nFrom: user@user-pc\nSubject:A1 8.8.8.8 ;retardo_en_ping: 20.0 ms\nMessage-Id: <20191113204306.002770@user-pc>\nX-Mailer: swaks v20181104.0 jetmore.org/john/code/swaks/\n\nIP:8.8.8.8 con respuesta de 20.0 ms\n\n'
p435
sg89
F1573699387.016455
sa(dp436
g81
(lp437
S'user@example.com'
p438
asg84
S'user@user-pc'
p439
sg86
I80
sg87
S'Date: Wed, 13 Nov 2019 20:43:07 -0600\nTo: user@example.com\nFrom: user@user-pc\nSubject:A1 8.8.4.4 ;retardo_en_ping: 20.0 ms\nMessage-Id: <20191113204307.002771@user-pc>\nX-Mailer: swaks v20181104.0 jetmore.org/john/code/swaks/\n\nIP:8.8.4.4 con respuesta de 20.0 ms\n\n'
p440
sg89
F1573699387.084594
sa(dp441
g84
S'user@user-pc'
p442
sg347
I01
sg81
(lp443
S'user@example.com'
p444
asg89
F1573699392.262608
sg87
S'Date: Wed, 13 Nov 2019 20:43:12 -0600\nTo: user@example.com\nFrom: user@user-pc\nSubject:A1 8.8.8.8 ;retardo_en_ping: 21.1 ms\nMessage-Id: <20191113204312.002781@user-pc>\nX-Mailer: swaks v20181104.0 jetmore.org/john/code/swaks/\n\nIP:8.8.8.8 con respuesta de 21.1 ms\n\n'
p445
sg86
I81
sa(dp446
g84
S'user@user-pc'
p447
sg347
I01
sg81
(lp448
S'user@example.com'
p449
asg89
F1573699392.33555
sg87
S'Date: Wed, 13 Nov 2019 20:43:12 -0600\nTo: user@example.com\nFrom: user@user-pc\nSubject:A1 8.8.4.4 ;retardo_en_ping: 21.1 ms\nMessage-Id: <20191113204312.002782@user-pc>\nX-Mailer: swaks v20181104.0 jetmore.org/john/code/swaks/\n\nIP:8.8.4.4 con respuesta de 21.1 ms\n\n'
p450
sg86
I82
sa(dp451
g81
(lp452
S'user@example.com'
p453
asg84
S'user@user-pc'
p454
sg86
I83
sg87
S'Date: Wed, 13 Nov 2019 20:43:17 -0600\nTo: user@example.com\nFrom: user@user-pc\nSubject:A1 8.8.8.8 ;retardo_en_ping: 46.3 ms\nMessage-Id: <20191113204317.002792@user-pc>\nX-Mailer: swaks v20181104.0 jetmore.org/john/code/swaks/\n\nIP:8.8.8.8 con respuesta de 46.3 ms\n\n'
p455
sg89
F1573699397.575336
sa(dp456
g81
(lp457
S'user@example.com'
p458
asg84
S'user@user-pc'
p459
sg86
I84
sg87
S'Date: Wed, 13 Nov 2019 20:43:17 -0600\nTo: user@example.com\nFrom: user@user-pc\nSubject:A1 8.8.4.4 ;retardo_en_ping: 46.3 ms\nMessage-Id: <20191113204317.002793@user-pc>\nX-Mailer: swaks v20181104.0 jetmore.org/john/code/swaks/\n\nIP:8.8.4.4 con respuesta de 46.3 ms\n\n'
p460
sg89
F1573699397.650764
sa(dp461
g81
(lp462
S'user@example.com'
p463
asg84
S'user@user-pc'
p464
sg86
I85
sg87
S'Date: Wed, 13 Nov 2019 20:43:22 -0600\nTo: user@example.com\nFrom: user@user-pc\nSubject:A1 8.8.8.8 ;retardo_en_ping: 21.2 ms\nMessage-Id: <20191113204322.002803@user-pc>\nX-Mailer: swaks v20181104.0 jetmore.org/john/code/swaks/\n\nIP:8.8.8.8 con respuesta de 21.2 ms\n\n'
p465
sg89
F1573699402.849138
sa(dp466
g84
S'user@user-pc'
p467
sS'read'
p468
I01
sg81
(lp469
S'user@example.com'
p470
asg89
F1573699402.917361
sg87
S'Date: Wed, 13 Nov 2019 20:43:22 -0600\nTo: user@example.com\nFrom: user@user-pc\nSubject:A1 8.8.4.4 ;retardo_en_ping: 21.2 ms\nMessage-Id: <20191113204322.002804@user-pc>\nX-Mailer: swaks v20181104.0 jetmore.org/john/code/swaks/\n\nIP:8.8.4.4 con respuesta de 21.2 ms\n\n'
p471
sg86
I86
sa(dp472
g84
S'user@user-pc'
p473
sg468
I01
sg81
(lp474
S'user@example.com'
p475
asg89
F1573699408.081235
sg87
S'Date: Wed, 13 Nov 2019 20:43:28 -0600\nTo: user@example.com\nFrom: user@user-pc\nSubject:A1 8.8.8.8 ;retardo_en_ping: 19.9 ms\nMessage-Id: <20191113204328.002814@user-pc>\nX-Mailer: swaks v20181104.0 jetmore.org/john/code/swaks/\n\nIP:8.8.8.8 con respuesta de 19.9 ms\n\n'
p476
sg86
I87
sa(dp477
g84
S'user@user-pc'
p478
sg468
I01
sg81
(lp479
S'user@example.com'
p480
asg89
F1573699408.150157
sg87
S'Date: Wed, 13 Nov 2019 20:43:28 -0600\nTo: user@example.com\nFrom: user@user-pc\nSubject:A1 8.8.4.4 ;retardo_en_ping: 19.9 ms\nMessage-Id: <20191113204328.002815@user-pc>\nX-Mailer: swaks v20181104.0 jetmore.org/john/code/swaks/\n\nIP:8.8.4.4 con respuesta de 19.9 ms\n\n'
p481
sg86
I88
sa(dp482
S'to'
p483
(lp484
S'user@example.com'
p485
asS'time'
p486
F1573699630.623143
sS'from'
p487
S'user@user-pc'
p488
sS'id'
p489
I89
sS'data'
p490
S'Date: Wed, 13 Nov 2019 20:47:10 -0600\nTo: user@example.com\nFrom: user@user-pc\nSubject:A1 8.8.8.8 ;retardo_en_ping: 49.5 ms\nMessage-Id: <20191113204710.002965@user-pc>\nX-Mailer: swaks v20181104.0 jetmore.org/john/code/swaks/\n\nIP:8.8.8.8 con respuesta de 49.5 ms\n\n'
p491
sa(dp492
g483
(lp493
S'user@example.com'
p494
asg486
F1573699630.740722
sg487
S'user@user-pc'
p495
sg489
I90
sg490
S'Date: Wed, 13 Nov 2019 20:47:10 -0600\nTo: user@example.com\nFrom: user@user-pc\nSubject:A1 8.8.4.4 ;retardo_en_ping: 37.9 ms\nMessage-Id: <20191113204710.002974@user-pc>\nX-Mailer: swaks v20181104.0 jetmore.org/john/code/swaks/\n\nIP:8.8.4.4 con respuesta de 37.9 ms\n\n'
p496
sa(dp497
g487
S'user@user-pc'
p498
sg468
I01
sg483
(lp499
S'user@example.com'
p500
asg486
F1573699635.942884
sg490
S'Date: Wed, 13 Nov 2019 20:47:15 -0600\nTo: user@example.com\nFrom: user@user-pc\nSubject:A1 8.8.8.8 ;retardo_en_ping: 20.3 ms\nMessage-Id: <20191113204715.002992@user-pc>\nX-Mailer: swaks v20181104.0 jetmore.org/john/code/swaks/\n\nIP:8.8.8.8 con respuesta de 20.3 ms\n\n'
p501
sg489
I91
sa(dp502
g483
(lp503
S'user@example.com'
p504
asg486
F1573699636.038864
sg487
S'user@user-pc'
p505
sg489
I92
sg490
S'Date: Wed, 13 Nov 2019 20:47:16 -0600\nTo: user@example.com\nFrom: user@user-pc\nSubject:A1 8.8.4.4 ;retardo_en_ping: 20.1 ms\nMessage-Id: <20191113204716.003001@user-pc>\nX-Mailer: swaks v20181104.0 jetmore.org/john/code/swaks/\n\nIP:8.8.4.4 con respuesta de 20.1 ms\n\n'
p506
sa(dp507
g483
(lp508
S'user@example.com'
p509
asg486
F1573699641.253321
sg487
S'user@user-pc'
p510
sg489
I93
sg490
S'Date: Wed, 13 Nov 2019 20:47:21 -0600\nTo: user@example.com\nFrom: user@user-pc\nSubject:A1 8.8.8.8 ;retardo_en_ping: 22.1 ms\nMessage-Id: <20191113204721.003019@user-pc>\nX-Mailer: swaks v20181104.0 jetmore.org/john/code/swaks/\n\nIP:8.8.8.8 con respuesta de 22.1 ms\n\n'
p511
sa(dp512
g483
(lp513
S'user@example.com'
p514
asg486
F1573699641.381406
sg487
S'user@user-pc'
p515
sg489
I94
sg490
S'Date: Wed, 13 Nov 2019 20:47:21 -0600\nTo: user@example.com\nFrom: user@user-pc\nSubject:A1 8.8.4.4 ;retardo_en_ping: 26.6 ms\nMessage-Id: <20191113204721.003028@user-pc>\nX-Mailer: swaks v20181104.0 jetmore.org/john/code/swaks/\n\nIP:8.8.4.4 con respuesta de 26.6 ms\n\n'
p516
sa(dp517
g483
(lp518
S'user@example.com'
p519
asg486
F1573699646.632739
sg487
S'user@user-pc'
p520
sg489
I95
sg490
S'Date: Wed, 13 Nov 2019 20:47:26 -0600\nTo: user@example.com\nFrom: user@user-pc\nSubject:A1 8.8.8.8 ;retardo_en_ping: 22.3 ms\nMessage-Id: <20191113204726.003046@user-pc>\nX-Mailer: swaks v20181104.0 jetmore.org/john/code/swaks/\n\nIP:8.8.8.8 con respuesta de 22.3 ms\n\n'
p521
sa(dp522
g483
(lp523
S'user@example.com'
p524
asg486
F1573699646.743972
sg487
S'user@user-pc'
p525
sg489
I96
sg490
S'Date: Wed, 13 Nov 2019 20:47:26 -0600\nTo: user@example.com\nFrom: user@user-pc\nSubject:A1 8.8.4.4 ;retardo_en_ping: 34.2 ms\nMessage-Id: <20191113204726.003055@user-pc>\nX-Mailer: swaks v20181104.0 jetmore.org/john/code/swaks/\n\nIP:8.8.4.4 con respuesta de 34.2 ms\n\n'
p526
sa(dp527
g483
(lp528
S'user@example.com'
p529
asg486
F1573699651.932795
sg487
S'user@user-pc'
p530
sg489
I97
sg490
S'Date: Wed, 13 Nov 2019 20:47:31 -0600\nTo: user@example.com\nFrom: user@user-pc\nSubject:A1 8.8.8.8 ;retardo_en_ping: 20.1 ms\nMessage-Id: <20191113204731.003073@user-pc>\nX-Mailer: swaks v20181104.0 jetmore.org/john/code/swaks/\n\nIP:8.8.8.8 con respuesta de 20.1 ms\n\n'
p531
sa(dp532
g483
(lp533
S'user@example.com'
p534
asg486
F1573699652.056228
sg487
S'user@user-pc'
p535
sg489
I98
sg490
S'Date: Wed, 13 Nov 2019 20:47:32 -0600\nTo: user@example.com\nFrom: user@user-pc\nSubject:A1 8.8.4.4 ;retardo_en_ping: 19.9 ms\nMessage-Id: <20191113204732.003082@user-pc>\nX-Mailer: swaks v20181104.0 jetmore.org/john/code/swaks/\n\nIP:8.8.4.4 con respuesta de 19.9 ms\n\n'
p536
sa(dp537
g483
(lp538
S'user@example.com'
p539
asg486
F1573699657.284901
sg487
S'user@user-pc'
p540
sg489
I99
sg490
S'Date: Wed, 13 Nov 2019 20:47:37 -0600\nTo: user@example.com\nFrom: user@user-pc\nSubject:A1 8.8.8.8 ;retardo_en_ping: 23.0 ms\nMessage-Id: <20191113204737.003100@user-pc>\nX-Mailer: swaks v20181104.0 jetmore.org/john/code/swaks/\n\nIP:8.8.8.8 con respuesta de 23.0 ms\n\n'
p541
sa(dp542
g483
(lp543
S'user@example.com'
p544
asg486
F1573699657.384298
sg487
S'user@user-pc'
p545
sg489
I100
sg490
S'Date: Wed, 13 Nov 2019 20:47:37 -0600\nTo: user@example.com\nFrom: user@user-pc\nSubject:A1 8.8.4.4 ;retardo_en_ping: 25.0 ms\nMessage-Id: <20191113204737.003109@user-pc>\nX-Mailer: swaks v20181104.0 jetmore.org/john/code/swaks/\n\nIP:8.8.4.4 con respuesta de 25.0 ms\n\n'
p546
sa(dp547
g483
(lp548
S'user@example.com'
p549
asg486
F1573699662.622358
sg487
S'user@user-pc'
p550
sg489
I101
sg490
S'Date: Wed, 13 Nov 2019 20:47:42 -0600\nTo: user@example.com\nFrom: user@user-pc\nSubject:A1 8.8.8.8 ;retardo_en_ping: 32.6 ms\nMessage-Id: <20191113204742.003127@user-pc>\nX-Mailer: swaks v20181104.0 jetmore.org/john/code/swaks/\n\nIP:8.8.8.8 con respuesta de 32.6 ms\n\n'
p551
sa(dp552
g483
(lp553
S'user@example.com'
p554
asg486
F1573699662.781141
sg487
S'user@user-pc'
p555
sg489
I102
sg490
S'Date: Wed, 13 Nov 2019 20:47:42 -0600\nTo: user@example.com\nFrom: user@user-pc\nSubject:A1 8.8.4.4 ;retardo_en_ping: 45.7 ms\nMessage-Id: <20191113204742.003136@user-pc>\nX-Mailer: swaks v20181104.0 jetmore.org/john/code/swaks/\n\nIP:8.8.4.4 con respuesta de 45.7 ms\n\n'
p556
sa(dp557
g483
(lp558
S'user@example.com'
p559
asg486
F1573699667.963351
sg487
S'user@user-pc'
p560
sg489
I103
sg490
S'Date: Wed, 13 Nov 2019 20:47:47 -0600\nTo: user@example.com\nFrom: user@user-pc\nSubject:A1 8.8.8.8 ;retardo_en_ping: 19.8 ms\nMessage-Id: <20191113204747.003154@user-pc>\nX-Mailer: swaks v20181104.0 jetmore.org/john/code/swaks/\n\nIP:8.8.8.8 con respuesta de 19.8 ms\n\n'
p561
sa(dp562
g483
(lp563
S'user@example.com'
p564
asg486
F1573699668.115767
sg487
S'user@user-pc'
p565
sg489
I104
sg490
S'Date: Wed, 13 Nov 2019 20:47:48 -0600\nTo: user@example.com\nFrom: user@user-pc\nSubject:A1 8.8.4.4 ;retardo_en_ping: 20.2 ms\nMessage-Id: <20191113204748.003163@user-pc>\nX-Mailer: swaks v20181104.0 jetmore.org/john/code/swaks/\n\nIP:8.8.4.4 con respuesta de 20.2 ms\n\n'
p566
sa(dp567
g483
(lp568
S'user@example.com'
p569
asg486
F1573699673.420613
sg487
S'user@user-pc'
p570
sg489
I105
sg490
S'Date: Wed, 13 Nov 2019 20:47:53 -0600\nTo: user@example.com\nFrom: user@user-pc\nSubject:A1 8.8.8.8 ;retardo_en_ping: 20.3 ms\nMessage-Id: <20191113204753.003181@user-pc>\nX-Mailer: swaks v20181104.0 jetmore.org/john/code/swaks/\n\nIP:8.8.8.8 con respuesta de 20.3 ms\n\n'
p571
sa(dp572
g483
(lp573
S'user@example.com'
p574
asg486
F1573699673.591504
sg487
S'user@user-pc'
p575
sg489
I106
sg490
S'Date: Wed, 13 Nov 2019 20:47:53 -0600\nTo: user@example.com\nFrom: user@user-pc\nSubject:A1 8.8.4.4 ;retardo_en_ping: 21.1 ms\nMessage-Id: <20191113204753.003190@user-pc>\nX-Mailer: swaks v20181104.0 jetmore.org/john/code/swaks/\n\nIP:8.8.4.4 con respuesta de 21.1 ms\n\n'
p576
sa(dp577
g483
(lp578
S'user@example.com'
p579
asg486
F1573699678.759447
sg487
S'user@user-pc'
p580
sg489
I107
sg490
S'Date: Wed, 13 Nov 2019 20:47:58 -0600\nTo: user@example.com\nFrom: user@user-pc\nSubject:A1 8.8.8.8 ;retardo_en_ping: 20.6 ms\nMessage-Id: <20191113204758.003208@user-pc>\nX-Mailer: swaks v20181104.0 jetmore.org/john/code/swaks/\n\nIP:8.8.8.8 con respuesta de 20.6 ms\n\n'
p581
sa(dp582
g483
(lp583
S'user@example.com'
p584
asg486
F1573699678.867131
sg487
S'user@user-pc'
p585
sg489
I108
sg490
S'Date: Wed, 13 Nov 2019 20:47:58 -0600\nTo: user@example.com\nFrom: user@user-pc\nSubject:A1 8.8.4.4 ;retardo_en_ping: 30.8 ms\nMessage-Id: <20191113204758.003217@user-pc>\nX-Mailer: swaks v20181104.0 jetmore.org/john/code/swaks/\n\nIP:8.8.4.4 con respuesta de 30.8 ms\n\n'
p586
sa(dp587
g483
(lp588
S'user@example.com'
p589
asg486
F1573699815.389163
sg487
S'user@user-pc'
p590
sg489
I109
sg490
S'Date: Wed, 13 Nov 2019 20:50:15 -0600\nTo: user@example.com\nFrom: user@user-pc\nSubject:A1 8.8.8.8 ;retardo_en_ping: 28.6 ms\nMessage-Id: <20191113205015.003320@user-pc>\nX-Mailer: swaks v20181104.0 jetmore.org/john/code/swaks/\n\nIP:8.8.8.8 con respuesta de 28.6 ms\n\n'
p591
sa(dp592
g483
(lp593
S'user@example.com'
p594
asg486
F1573699815.487044
sg487
S'user@user-pc'
p595
sg489
I110
sg490
S'Date: Wed, 13 Nov 2019 20:50:15 -0600\nTo: user@example.com\nFrom: user@user-pc\nSubject:A1 8.8.4.4 ;retardo_en_ping: 19.5 ms\nMessage-Id: <20191113205015.003329@user-pc>\nX-Mailer: swaks v20181104.0 jetmore.org/john/code/swaks/\n\nIP:8.8.4.4 con respuesta de 19.5 ms\n\n'
p596
sa(dp597
g483
(lp598
S'user@example.com'
p599
asg486
F1573699820.715269
sg487
S'user@user-pc'
p600
sg489
I111
sg490
S'Date: Wed, 13 Nov 2019 20:50:20 -0600\nTo: user@example.com\nFrom: user@user-pc\nSubject:A1 8.8.8.8 ;retardo_en_ping: 70.2 ms\nMessage-Id: <20191113205020.003347@user-pc>\nX-Mailer: swaks v20181104.0 jetmore.org/john/code/swaks/\n\nIP:8.8.8.8 con respuesta de 70.2 ms\n\n'
p601
sa(dp602
g483
(lp603
S'user@example.com'
p604
asg486
F1573699820.915129
sg487
S'user@user-pc'
p605
sg489
I112
sg490
S'Date: Wed, 13 Nov 2019 20:50:20 -0600\nTo: user@example.com\nFrom: user@user-pc\nSubject:A1 8.8.4.4 ;retardo_en_ping: 93.3 ms\nMessage-Id: <20191113205020.003356@user-pc>\nX-Mailer: swaks v20181104.0 jetmore.org/john/code/swaks/\n\nIP:8.8.4.4 con respuesta de 93.3 ms\n\n'
p606
sa(dp607
g483
(lp608
S'user@example.com'
p609
asg486
F1573699826.13289
sg487
S'user@user-pc'
p610
sg489
I113
sg490
S'Date: Wed, 13 Nov 2019 20:50:26 -0600\nTo: user@example.com\nFrom: user@user-pc\nSubject:A1 8.8.8.8 ;retardo_en_ping: 20.4 ms\nMessage-Id: <20191113205026.003374@user-pc>\nX-Mailer: swaks v20181104.0 jetmore.org/john/code/swaks/\n\nIP:8.8.8.8 con respuesta de 20.4 ms\n\n'
p611
sa(dp612
g483
(lp613
S'user@example.com'
p614
asg486
F1573699826.232389
sg487
S'user@user-pc'
p615
sg489
I114
sg490
S'Date: Wed, 13 Nov 2019 20:50:26 -0600\nTo: user@example.com\nFrom: user@user-pc\nSubject:A1 8.8.4.4 ;retardo_en_ping: 19.7 ms\nMessage-Id: <20191113205026.003383@user-pc>\nX-Mailer: swaks v20181104.0 jetmore.org/john/code/swaks/\n\nIP:8.8.4.4 con respuesta de 19.7 ms\n\n'
p616
sa(dp617
S'to'
p618
(lp619
S'user@example.com'
p620
asS'from'
p621
S'tc@box'
p622
sS'id'
p623
I115
sS'data'
p624
S'Date: Thu, 14 Nov 2019 19:04:13 +0000\nTo: user@example.com\nFrom: tc@box\nSubject:A1 8.8.4.4 ;retardo_en_ping: 44.346 ms\nMessage-Id: <20191114190413.008235@box>\nX-Mailer: swaks v20190914.0 jetmore.org/john/code/swaks/\n\nIP:8.8.4.4 con respuesta de 44.346 ms\n\n'
p625
sS'time'
p626
F1573758253.834505
sa(dp627
g618
(lp628
S'user@example.com'
p629
asg621
S'tc@box'
p630
sg623
I116
sg624
S'Date: Thu, 14 Nov 2019 19:04:18 +0000\nTo: user@example.com\nFrom: tc@box\nSubject:A1 8.8.8.8 ;retardo_en_ping: 45.141 ms\nMessage-Id: <20191114190418.008253@box>\nX-Mailer: swaks v20190914.0 jetmore.org/john/code/swaks/\n\nIP:8.8.8.8 con respuesta de 45.141 ms\n\n'
p631
sg626
F1573758258.996665
sa(dp632
g618
(lp633
S'user@example.com'
p634
asg621
S'tc@box'
p635
sg623
I117
sg624
S'Date: Thu, 14 Nov 2019 19:04:19 +0000\nTo: user@example.com\nFrom: tc@box\nSubject:A1 8.8.4.4 ;retardo_en_ping: 44.408 ms\nMessage-Id: <20191114190419.008262@box>\nX-Mailer: swaks v20190914.0 jetmore.org/john/code/swaks/\n\nIP:8.8.4.4 con respuesta de 44.408 ms\n\n'
p636
sg626
F1573758259.112673
sa(dp637
g618
(lp638
S'user@example.com'
p639
asg621
S'tc@box'
p640
sg623
I118
sg624
S'Date: Thu, 14 Nov 2019 19:04:24 +0000\nTo: user@example.com\nFrom: tc@box\nSubject:A1 8.8.8.8 ;retardo_en_ping: 46.363 ms\nMessage-Id: <20191114190424.008327@box>\nX-Mailer: swaks v20190914.0 jetmore.org/john/code/swaks/\n\nIP:8.8.8.8 con respuesta de 46.363 ms\n\n'
p641
sg626
F1573758264.342678
sa(dp642
g618
(lp643
S'user@example.com'
p644
asg621
S'tc@box'
p645
sg623
I119
sg624
S'Date: Thu, 14 Nov 2019 19:04:24 +0000\nTo: user@example.com\nFrom: tc@box\nSubject:A1 8.8.4.4 ;retardo_en_ping: 126.225 ms\nMessage-Id: <20191114190424.008336@box>\nX-Mailer: swaks v20190914.0 jetmore.org/john/code/swaks/\n\nIP:8.8.4.4 con respuesta de 126.225 ms\n\n'
p646
sg626
F1573758264.646678
sa(dp647
g618
(lp648
S'user@example.com'
p649
asg621
S'tc@box'
p650
sg623
I120
sg624
S'Date: Thu, 14 Nov 2019 19:04:29 +0000\nTo: user@example.com\nFrom: tc@box\nSubject:A1 8.8.8.8 ;retardo_en_ping: 45.855 ms\nMessage-Id: <20191114190429.008358@box>\nX-Mailer: swaks v20190914.0 jetmore.org/john/code/swaks/\n\nIP:8.8.8.8 con respuesta de 45.855 ms\n\n'
p651
sg626
F1573758269.823337
sa(dp652
g618
(lp653
S'user@example.com'
p654
asg621
S'tc@box'
p655
sg623
I121
sg624
S'Date: Thu, 14 Nov 2019 19:04:29 +0000\nTo: user@example.com\nFrom: tc@box\nSubject:A1 8.8.4.4 ;retardo_en_ping: 45.083 ms\nMessage-Id: <20191114190429.008367@box>\nX-Mailer: swaks v20190914.0 jetmore.org/john/code/swaks/\n\nIP:8.8.4.4 con respuesta de 45.083 ms\n\n'
p656
sg626
F1573758269.95044
sa(dp657
g618
(lp658
S'user@example.com'
p659
asg621
S'tc@box'
p660
sg623
I122
sg624
S'Date: Thu, 14 Nov 2019 19:04:35 +0000\nTo: user@example.com\nFrom: tc@box\nSubject:A1 8.8.8.8 ;retardo_en_ping: 62.675 ms\nMessage-Id: <20191114190435.008397@box>\nX-Mailer: swaks v20190914.0 jetmore.org/john/code/swaks/\n\nIP:8.8.8.8 con respuesta de 62.675 ms\n\n'
p661
sg626
F1573758275.143497
sa(dp662
g618
(lp663
S'user@example.com'
p664
asg621
S'tc@box'
p665
sg623
I123
sg624
S'Date: Thu, 14 Nov 2019 19:04:35 +0000\nTo: user@example.com\nFrom: tc@box\nSubject:A1 8.8.4.4 ;retardo_en_ping: 44.895 ms\nMessage-Id: <20191114190435.008406@box>\nX-Mailer: swaks v20190914.0 jetmore.org/john/code/swaks/\n\nIP:8.8.4.4 con respuesta de 44.895 ms\n\n'
p666
sg626
F1573758275.266407
sa(dp667
g618
(lp668
S'user@example.com'
p669
asg621
S'tc@box'
p670
sg623
I124
sg624
S'Date: Thu, 14 Nov 2019 19:04:40 +0000\nTo: user@example.com\nFrom: tc@box\nSubject:A1 8.8.8.8 ;retardo_en_ping: 44.187 ms\nMessage-Id: <20191114190440.008424@box>\nX-Mailer: swaks v20190914.0 jetmore.org/john/code/swaks/\n\nIP:8.8.8.8 con respuesta de 44.187 ms\n\n'
p671
sg626
F1573758280.395924
sa(dp672
g621
S'tc@box'
p673
sS'read'
p674
I01
sg618
(lp675
S'user@example.com'
p676
asg626
F1573758280.540225
sg624
S'Date: Thu, 14 Nov 2019 19:04:40 +0000\nTo: user@example.com\nFrom: tc@box\nSubject:A1 8.8.4.4 ;retardo_en_ping: 45.129 ms\nMessage-Id: <20191114190440.008433@box>\nX-Mailer: swaks v20190914.0 jetmore.org/john/code/swaks/\n\nIP:8.8.4.4 con respuesta de 45.129 ms\n\n'
p677
sg623
I125
sa(dp678
g618
(lp679
S'user@example.com'
p680
asg621
S'tc@box'
p681
sg623
I126
sg624
S'Date: Thu, 14 Nov 2019 19:04:45 +0000\nTo: user@example.com\nFrom: tc@box\nSubject:A1 8.8.8.8 ;retardo_en_ping: 45.940 ms\nMessage-Id: <20191114190445.008451@box>\nX-Mailer: swaks v20190914.0 jetmore.org/john/code/swaks/\n\nIP:8.8.8.8 con respuesta de 45.940 ms\n\n'
p682
sg626
F1573758285.70851
sa(dp683
g621
S'tc@box'
p684
sg674
I01
sg618
(lp685
S'user@example.com'
p686
asg626
F1573758285.824269
sg624
S'Date: Thu, 14 Nov 2019 19:04:45 +0000\nTo: user@example.com\nFrom: tc@box\nSubject:A1 8.8.4.4 ;retardo_en_ping: 44.507 ms\nMessage-Id: <20191114190445.008460@box>\nX-Mailer: swaks v20190914.0 jetmore.org/john/code/swaks/\n\nIP:8.8.4.4 con respuesta de 44.507 ms\n\n'
p687
sg623
I127
sa(dp688
g618
(lp689
S'user@example.com'
p690
asg621
S'tc@box'
p691
sg623
I128
sg624
S'Date: Thu, 14 Nov 2019 19:04:50 +0000\nTo: user@example.com\nFrom: tc@box\nSubject:A1 8.8.8.8 ;retardo_en_ping: 45.369 ms\nMessage-Id: <20191114190450.008478@box>\nX-Mailer: swaks v20190914.0 jetmore.org/john/code/swaks/\n\nIP:8.8.8.8 con respuesta de 45.369 ms\n\n'
p692
sg626
F1573758290.990744
sa(dp693
g621
S'tc@box'
p694
sg674
I01
sg618
(lp695
S'user@example.com'
p696
asg626
F1573758291.106849
sg624
S'Date: Thu, 14 Nov 2019 19:04:51 +0000\nTo: user@example.com\nFrom: tc@box\nSubject:A1 8.8.4.4 ;retardo_en_ping: 44.205 ms\nMessage-Id: <20191114190451.008487@box>\nX-Mailer: swaks v20190914.0 jetmore.org/john/code/swaks/\n\nIP:8.8.4.4 con respuesta de 44.205 ms\n\n'
p697
sg623
I129
sa(dp698
g618
(lp699
S'user@example.com'
p700
asg621
S'tc@box'
p701
sg623
I130
sg624
S'Date: Thu, 14 Nov 2019 19:04:56 +0000\nTo: user@example.com\nFrom: tc@box\nSubject:A1 8.8.8.8 ;retardo_en_ping: 44.031 ms\nMessage-Id: <20191114190456.008505@box>\nX-Mailer: swaks v20190914.0 jetmore.org/john/code/swaks/\n\nIP:8.8.8.8 con respuesta de 44.031 ms\n\n'
p702
sg626
F1573758296.302884
sa(dp703
g621
S'tc@box'
p704
sg674
I01
sg618
(lp705
S'user@example.com'
p706
asg626
F1573758296.490864
sg624
S'Date: Thu, 14 Nov 2019 19:04:56 +0000\nTo: user@example.com\nFrom: tc@box\nSubject:A1 8.8.4.4 ;retardo_en_ping: 43.575 ms\nMessage-Id: <20191114190456.008514@box>\nX-Mailer: swaks v20190914.0 jetmore.org/john/code/swaks/\n\nIP:8.8.4.4 con respuesta de 43.575 ms\n\n'
p707
sg623
I131
sa(dp708
g618
(lp709
S'user@example.com'
p710
asg621
S'tc@box'
p711
sg623
I132
sg624
S'Date: Thu, 14 Nov 2019 19:05:01 +0000\nTo: user@example.com\nFrom: tc@box\nSubject:A1 8.8.8.8 ;retardo_en_ping: 44.231 ms\nMessage-Id: <20191114190501.008532@box>\nX-Mailer: swaks v20190914.0 jetmore.org/john/code/swaks/\n\nIP:8.8.8.8 con respuesta de 44.231 ms\n\n'
p712
sg626
F1573758301.732644
sa(dp713
g618
(lp714
S'user@example.com'
p715
asg621
S'tc@box'
p716
sg623
I133
sg624
S'Date: Thu, 14 Nov 2019 19:05:01 +0000\nTo: user@example.com\nFrom: tc@box\nSubject:A1 8.8.4.4 ;retardo_en_ping: 44.901 ms\nMessage-Id: <20191114190501.008541@box>\nX-Mailer: swaks v20190914.0 jetmore.org/john/code/swaks/\n\nIP:8.8.4.4 con respuesta de 44.901 ms\n\n'
p717
sg626
F1573758301.913189
sa(dp718
S'to'
p719
(lp720
S'user@example.com'
p721
asS'time'
p722
F1573763742.728256
sS'from'
p723
S'tc@box'
p724
sS'id'
p725
I134
sS'data'
p726
S'Date: Thu, 14 Nov 2019 20:35:42 +0000\nTo: user@example.com\nFrom: tc@box\nSubject:A1 10.0.1.1 ;retardo_en_ping: HOST-RESOURCES-MIB::hrProcessorLoad.768 = INTEGER: 1 ms\nMessage-Id: <20191114203542.008440@box>\nX-Mailer: swaks v20190914.0 jetmore.org/john/code/swaks/\n\nIP:10.0.1.1 con respuesta de HOST-RESOURCES-MIB::hrProcessorLoad.768 = INTEGER: 1 ms\n\n'
p727
sa(dp728
g723
S'tc@box'
p729
sS'read'
p730
I01
sg719
(lp731
S'user@example.com'
p732
asg722
F1573763747.847405
sg726
S'Date: Thu, 14 Nov 2019 20:35:47 +0000\nTo: user@example.com\nFrom: tc@box\nSubject:A1 10.0.1.1 ;retardo_en_ping: HOST-RESOURCES-MIB::hrProcessorLoad.768 = INTEGER: 1 ms\nMessage-Id: <20191114203547.008460@box>\nX-Mailer: swaks v20190914.0 jetmore.org/john/code/swaks/\n\nIP:10.0.1.1 con respuesta de HOST-RESOURCES-MIB::hrProcessorLoad.768 = INTEGER: 1 ms\n\n'
p733
sg725
I135
sa(dp734
g719
(lp735
S'user@example.com'
p736
asg722
F1573763752.973748
sg723
S'tc@box'
p737
sg725
I136
sg726
S'Date: Thu, 14 Nov 2019 20:35:52 +0000\nTo: user@example.com\nFrom: tc@box\nSubject:A1 10.0.1.1 ;retardo_en_ping: HOST-RESOURCES-MIB::hrProcessorLoad.768 = INTEGER: 1 ms\nMessage-Id: <20191114203552.008466@box>\nX-Mailer: swaks v20190914.0 jetmore.org/john/code/swaks/\n\nIP:10.0.1.1 con respuesta de HOST-RESOURCES-MIB::hrProcessorLoad.768 = INTEGER: 1 ms\n\n'
p738
sa(dp739
g719
(lp740
S'user@example.com'
p741
asg722
F1573763758.09676
sg723
S'tc@box'
p742
sg725
I137
sg726
S'Date: Thu, 14 Nov 2019 20:35:58 +0000\nTo: user@example.com\nFrom: tc@box\nSubject:A1 10.0.1.1 ;retardo_en_ping: HOST-RESOURCES-MIB::hrProcessorLoad.768 = INTEGER: 1 ms\nMessage-Id: <20191114203558.008472@box>\nX-Mailer: swaks v20190914.0 jetmore.org/john/code/swaks/\n\nIP:10.0.1.1 con respuesta de HOST-RESOURCES-MIB::hrProcessorLoad.768 = INTEGER: 1 ms\n\n'
p743
sa(dp744
g723
S'tc@box'
p745
sg730
I01
sg719
(lp746
S'user@example.com'
p747
asg722
F1573763763.24189
sg726
S'Date: Thu, 14 Nov 2019 20:36:03 +0000\nTo: user@example.com\nFrom: tc@box\nSubject:A1 10.0.1.1 ;retardo_en_ping: HOST-RESOURCES-MIB::hrProcessorLoad.768 = INTEGER: 1 ms\nMessage-Id: <20191114203603.008478@box>\nX-Mailer: swaks v20190914.0 jetmore.org/john/code/swaks/\n\nIP:10.0.1.1 con respuesta de HOST-RESOURCES-MIB::hrProcessorLoad.768 = INTEGER: 1 ms\n\n'
p748
sg725
I138
sa(dp749
g723
S'tc@box'
p750
sg730
I01
sg719
(lp751
S'user@example.com'
p752
asg722
F1573763844.955446
sg726
S'Date: Thu, 14 Nov 2019 20:37:24 +0000\nTo: user@example.com\nFrom: tc@box\nSubject:A1 10.0.1.1 ;retardo_en_ping: HOST-RESOURCES-MIB::hrProcessorLoad.768 = INTEGER: 1 ms\nMessage-Id: <20191114203724.008487@box>\nX-Mailer: swaks v20190914.0 jetmore.org/john/code/swaks/\n\nIP:10.0.1.1 con respuesta de \n\t\t\t  \\%\n\n'
p753
sg725
I139
sa(dp754
g723
S'tc@box'
p755
sg730
I01
sg719
(lp756
S'user@example.com'
p757
asg722
F1573763850.078626
sg726
S'Date: Thu, 14 Nov 2019 20:37:30 +0000\nTo: user@example.com\nFrom: tc@box\nSubject:A1 10.0.1.1 ;retardo_en_ping: HOST-RESOURCES-MIB::hrProcessorLoad.768 = INTEGER: 1 ms\nMessage-Id: <20191114203730.008493@box>\nX-Mailer: swaks v20190914.0 jetmore.org/john/code/swaks/\n\nIP:10.0.1.1 con respuesta de \n\t\t\t  \\%\n\n'
p758
sg725
I140
sa(dp759
g719
(lp760
S'user@example.com'
p761
asg722
F1573763855.203755
sg723
S'tc@box'
p762
sg725
I141
sg726
S'Date: Thu, 14 Nov 2019 20:37:35 +0000\nTo: user@example.com\nFrom: tc@box\nSubject:A1 10.0.1.1 ;retardo_en_ping: HOST-RESOURCES-MIB::hrProcessorLoad.768 = INTEGER: 1 ms\nMessage-Id: <20191114203735.008499@box>\nX-Mailer: swaks v20190914.0 jetmore.org/john/code/swaks/\n\nIP:10.0.1.1 con respuesta de \n\t\t\t  \\%\n\n'
p763
sa(dp764
g719
(lp765
S'user@example.com'
p766
asg722
F1573763860.323332
sg723
S'tc@box'
p767
sg725
I142
sg726
S'Date: Thu, 14 Nov 2019 20:37:40 +0000\nTo: user@example.com\nFrom: tc@box\nSubject:A1 10.0.1.1 ;retardo_en_ping: HOST-RESOURCES-MIB::hrProcessorLoad.768 = INTEGER: 1 ms\nMessage-Id: <20191114203740.008505@box>\nX-Mailer: swaks v20190914.0 jetmore.org/john/code/swaks/\n\nIP:10.0.1.1 con respuesta de \n\t\t\t  \\%\n\n'
p768
sa(dp769
g719
(lp770
S'user@example.com'
p771
asg722
F1573763893.95522
sg723
S'tc@box'
p772
sg725
I143
sg726
S'Date: Thu, 14 Nov 2019 20:38:13 +0000\nTo: user@example.com\nFrom: tc@box\nSubject:A1 10.0.1.1 ;retardo_en_ping: HOST-RESOURCES-MIB::hrProcessorLoad.768 = INTEGER: 1 ms\nMessage-Id: <20191114203813.008513@box>\nX-Mailer: swaks v20190914.0 jetmore.org/john/code/swaks/\n\nIP:10.0.1.1 con respuesta de \n\t\t\t  \\%\n\n'
p773
sa(dp774
g719
(lp775
S'user@example.com'
p776
asg722
F1573763926.725408
sg723
S'tc@box'
p777
sg725
I144
sg726
S'Date: Thu, 14 Nov 2019 20:38:46 +0000\nTo: user@example.com\nFrom: tc@box\nSubject:A1 10.0.1.1 ;retardo_en_ping: HOST-RESOURCES-MIB::hrProcessorLoad.768 = INTEGER: 1 ms\nMessage-Id: <20191114203846.008521@box>\nX-Mailer: swaks v20190914.0 jetmore.org/john/code/swaks/\n\nIP:10.0.1.1 con respuesta de  \\%\n\n'
p778
sa(dp779
g719
(lp780
S'user@example.com'
p781
asg722
F1573763961.946211
sg723
S'tc@box'
p782
sg725
I145
sg726
S'Date: Thu, 14 Nov 2019 20:39:21 +0000\nTo: user@example.com\nFrom: tc@box\nSubject:A1 10.0.1.1 ;retardo_en_ping: HOST-RESOURCES-MIB::hrProcessorLoad.768 = INTEGER: 1 ms\nMessage-Id: <20191114203921.008529@box>\nX-Mailer: swaks v20190914.0 jetmore.org/john/code/swaks/\n\nIP:10.0.1.1 con respuesta de  \\%\n\n'
p783
sa(dp784
g719
(lp785
S'user@example.com'
p786
asg722
F1573763967.064605
sg723
S'tc@box'
p787
sg725
I146
sg726
S'Date: Thu, 14 Nov 2019 20:39:27 +0000\nTo: user@example.com\nFrom: tc@box\nSubject:A1 10.0.1.1 ;retardo_en_ping: HOST-RESOURCES-MIB::hrProcessorLoad.768 = INTEGER: 1 ms\nMessage-Id: <20191114203927.008535@box>\nX-Mailer: swaks v20190914.0 jetmore.org/john/code/swaks/\n\nIP:10.0.1.1 con respuesta de  \\%\n\n'
p788
sa(dp789
g723
S'tc@box'
p790
sg730
I01
sg719
(lp791
S'user@example.com'
p792
asg722
F1573763972.183212
sg726
S'Date: Thu, 14 Nov 2019 20:39:32 +0000\nTo: user@example.com\nFrom: tc@box\nSubject:A1 10.0.1.1 ;retardo_en_ping: HOST-RESOURCES-MIB::hrProcessorLoad.768 = INTEGER: 1 ms\nMessage-Id: <20191114203932.008541@box>\nX-Mailer: swaks v20190914.0 jetmore.org/john/code/swaks/\n\nIP:10.0.1.1 con respuesta de  \\%\n\n'
p793
sg725
I147
sa(dp794
g723
S'tc@box'
p795
sg730
I01
sg719
(lp796
S'user@example.com'
p797
asg722
F1573765256.049087
sg726
S'Date: Thu, 14 Nov 2019 21:00:56 +0000\nTo: user@example.com\nFrom: tc@box\nSubject:A2;10.0.1.1;utilizacion_CPU HOST-RESOURCES-MIB::hrProcessorLoad.768 = INTEGER: 1 %\nMessage-Id: <20191114210056.008676@box>\nX-Mailer: swaks v20190914.0 jetmore.org/john/code/swaks/\n\nIP:10.0.1.1 usando el 1 %  del CPU \n\n'
p798
sg725
I148
sa(dp799
g719
(lp800
S'user@example.com'
p801
asg722
F1573765261.17177
sg723
S'tc@box'
p802
sg725
I149
sg726
S'Date: Thu, 14 Nov 2019 21:01:01 +0000\nTo: user@example.com\nFrom: tc@box\nSubject:A2;10.0.1.1;utilizacion_CPU HOST-RESOURCES-MIB::hrProcessorLoad.768 = INTEGER: 1 %\nMessage-Id: <20191114210101.008682@box>\nX-Mailer: swaks v20190914.0 jetmore.org/john/code/swaks/\n\nIP:10.0.1.1 usando el 1 %  del CPU \n\n'
p803
sa(dp804
g719
(lp805
S'user@example.com'
p806
asg722
F1573765266.32882
sg723
S'tc@box'
p807
sg725
I150
sg726
S'Date: Thu, 14 Nov 2019 21:01:06 +0000\nTo: user@example.com\nFrom: tc@box\nSubject:A2;10.0.1.1;utilizacion_CPU HOST-RESOURCES-MIB::hrProcessorLoad.768 = INTEGER: 1 %\nMessage-Id: <20191114210106.008688@box>\nX-Mailer: swaks v20190914.0 jetmore.org/john/code/swaks/\n\nIP:10.0.1.1 usando el 1 %  del CPU \n\n'
p808
sa(dp809
g719
(lp810
S'user@example.com'
p811
asg722
F1573765271.463368
sg723
S'tc@box'
p812
sg725
I151
sg726
S'Date: Thu, 14 Nov 2019 21:01:11 +0000\nTo: user@example.com\nFrom: tc@box\nSubject:A2;10.0.1.1;utilizacion_CPU HOST-RESOURCES-MIB::hrProcessorLoad.768 = INTEGER: 1 %\nMessage-Id: <20191114210111.008694@box>\nX-Mailer: swaks v20190914.0 jetmore.org/john/code/swaks/\n\nIP:10.0.1.1 usando el 1 %  del CPU \n\n'
p813
sa(dp814
g719
(lp815
S'user@example.com'
p816
asg722
F1573765312.626265
sg723
S'tc@box'
p817
sg725
I152
sg726
S'Date: Thu, 14 Nov 2019 21:01:52 +0000\nTo: user@example.com\nFrom: tc@box\nSubject:A2;10.0.1.1;utilizacion_CPU%\nMessage-Id: <20191114210152.008702@box>\nX-Mailer: swaks v20190914.0 jetmore.org/john/code/swaks/\n\nIP:10.0.1.1 usando el 1 %  del CPU \n\n'
p818
sa(dp819
g719
(lp820
S'user@example.com'
p821
asg722
F1573765317.761336
sg723
S'tc@box'
p822
sg725
I153
sg726
S'Date: Thu, 14 Nov 2019 21:01:57 +0000\nTo: user@example.com\nFrom: tc@box\nSubject:A2;10.0.1.1;utilizacion_CPU%\nMessage-Id: <20191114210157.008708@box>\nX-Mailer: swaks v20190914.0 jetmore.org/john/code/swaks/\n\nIP:10.0.1.1 usando el 1 %  del CPU \n\n'
p823
sa(dp824
g723
S'tc@box'
p825
sg730
I01
sg719
(lp826
S'user@example.com'
p827
asg722
F1573765360.936624
sg726
S'Date: Thu, 14 Nov 2019 21:02:40 +0000\nTo: user@example.com\nFrom: tc@box\nSubject:A2;10.0.1.1;utilizacion_CPU\nMessage-Id: <20191114210240.008716@box>\nX-Mailer: swaks v20190914.0 jetmore.org/john/code/swaks/\n\nIP:10.0.1.1 usando el 1 %  del CPU \n\n'
p828
sg725
I154
sa(dp829
g723
S'tc@box'
p830
sg730
I01
sg719
(lp831
S'user@example.com'
p832
asg722
F1573765366.126924
sg726
S'Date: Thu, 14 Nov 2019 21:02:46 +0000\nTo: user@example.com\nFrom: tc@box\nSubject:A2;10.0.1.1;utilizacion_CPU\nMessage-Id: <20191114210246.008722@box>\nX-Mailer: swaks v20190914.0 jetmore.org/john/code/swaks/\n\nIP:10.0.1.1 usando el 1 %  del CPU \n\n'
p833
sg725
I155
sa(dp834
g719
(lp835
S'user@example.com'
p836
asg722
F1573765371.24749
sg723
S'tc@box'
p837
sg725
I156
sg726
S'Date: Thu, 14 Nov 2019 21:02:51 +0000\nTo: user@example.com\nFrom: tc@box\nSubject:A2;10.0.1.1;utilizacion_CPU\nMessage-Id: <20191114210251.008728@box>\nX-Mailer: swaks v20190914.0 jetmore.org/john/code/swaks/\n\nIP:10.0.1.1 usando el 1 %  del CPU \n\n'
p838
sa(dp839
g723
S'tc@box'
p840
sg730
I01
sg719
(lp841
S'user@example.com'
p842
asg722
F1573765376.369601
sg726
S'Date: Thu, 14 Nov 2019 21:02:56 +0000\nTo: user@example.com\nFrom: tc@box\nSubject:A2;10.0.1.1;utilizacion_CPU\nMessage-Id: <20191114210256.008734@box>\nX-Mailer: swaks v20190914.0 jetmore.org/john/code/swaks/\n\nIP:10.0.1.1 usando el 1 %  del CPU \n\n'
p843
sg725
I157
sa(dp844
g723
S'tc@box'
p845
sg730
I01
sg719
(lp846
S'user@example.com'
p847
asg722
F1573765381.49603
sg726
S'Date: Thu, 14 Nov 2019 21:03:01 +0000\nTo: user@example.com\nFrom: tc@box\nSubject:A2;10.0.1.1;utilizacion_CPU\nMessage-Id: <20191114210301.008740@box>\nX-Mailer: swaks v20190914.0 jetmore.org/john/code/swaks/\n\nIP:10.0.1.1 usando el 1 %  del CPU \n\n'
p848
sg725
I158
sa(dp849
g723
S'tc@box'
p850
sg730
I01
sg719
(lp851
S'user@example.com'
p852
asg722
F1573765386.663297
sg726
S'Date: Thu, 14 Nov 2019 21:03:06 +0000\nTo: user@example.com\nFrom: tc@box\nSubject:A2;10.0.1.1;utilizacion_CPU\nMessage-Id: <20191114210306.008746@box>\nX-Mailer: swaks v20190914.0 jetmore.org/john/code/swaks/\n\nIP:10.0.1.1 usando el 1 %  del CPU \n\n'
p853
sg725
I159
sa(dp854
g719
(lp855
S'user@example.com'
p856
asg722
F1573765391.797018
sg723
S'tc@box'
p857
sg725
I160
sg726
S'Date: Thu, 14 Nov 2019 21:03:11 +0000\nTo: user@example.com\nFrom: tc@box\nSubject:A2;10.0.1.1;utilizacion_CPU\nMessage-Id: <20191114210311.008752@box>\nX-Mailer: swaks v20190914.0 jetmore.org/john/code/swaks/\n\nIP:10.0.1.1 usando el 1 %  del CPU \n\n'
p858
sas.